
build/tseDemo.elf:     file format elf32-littleriscv


Disassembly of section .init:

f9000000 <_start>:

_start:
#ifdef USE_GP
.option push
.option norelax
	la gp, __global_pointer$
f9000000:	00001197          	auipc	gp,0x1
f9000004:	45818193          	addi	gp,gp,1112 # f9001458 <__global_pointer$>

f9000008 <init>:
	sw a0, smp_lottery_lock, a1
    ret
#endif

init:
	la sp, _sp
f9000008:	00002117          	auipc	sp,0x2
f900000c:	c7810113          	addi	sp,sp,-904 # f9001c80 <__freertos_irq_stack_top>

	/* Load data section */
	la a0, _data_lma
f9000010:	00001517          	auipc	a0,0x1
f9000014:	8fc50513          	addi	a0,a0,-1796 # f900090c <__init_array_end>
	la a1, _data
f9000018:	00001597          	auipc	a1,0x1
f900001c:	8f458593          	addi	a1,a1,-1804 # f900090c <__init_array_end>
	la a2, _edata
f9000020:	81c18613          	addi	a2,gp,-2020 # f9000c74 <__bss_start>
	bgeu a1, a2, 2f
f9000024:	00c5fc63          	bgeu	a1,a2,f900003c <init+0x34>
1:
	lw t0, (a0)
f9000028:	00052283          	lw	t0,0(a0)
	sw t0, (a1)
f900002c:	0055a023          	sw	t0,0(a1)
	addi a0, a0, 4
f9000030:	00450513          	addi	a0,a0,4
	addi a1, a1, 4
f9000034:	00458593          	addi	a1,a1,4
	bltu a1, a2, 1b
f9000038:	fec5e8e3          	bltu	a1,a2,f9000028 <init+0x20>
2:

	/* Clear bss section */
	la a0, __bss_start
f900003c:	81c18513          	addi	a0,gp,-2020 # f9000c74 <__bss_start>
	la a1, _end
f9000040:	82018593          	addi	a1,gp,-2016 # f9000c78 <_end>
	bgeu a0, a1, 2f
f9000044:	00b57863          	bgeu	a0,a1,f9000054 <init+0x4c>
1:
	sw zero, (a0)
f9000048:	00052023          	sw	zero,0(a0)
	addi a0, a0, 4
f900004c:	00450513          	addi	a0,a0,4
	bltu a0, a1, 1b
f9000050:	feb56ce3          	bltu	a0,a1,f9000048 <init+0x40>
2:

#ifndef NO_LIBC_INIT_ARRAY
	call __libc_init_array
f9000054:	010000ef          	jal	ra,f9000064 <__libc_init_array>
#endif

	call main
f9000058:	085000ef          	jal	ra,f90008dc <main>

f900005c <mainDone>:
mainDone:
    j mainDone
f900005c:	0000006f          	j	f900005c <mainDone>

f9000060 <_init>:


	.globl _init
_init:
    ret
f9000060:	00008067          	ret

Disassembly of section .text:

f9000064 <__libc_init_array>:
f9000064:	ff010113          	addi	sp,sp,-16
f9000068:	00812423          	sw	s0,8(sp)
f900006c:	01212023          	sw	s2,0(sp)
f9000070:	00001417          	auipc	s0,0x1
f9000074:	89c40413          	addi	s0,s0,-1892 # f900090c <__init_array_end>
f9000078:	00001917          	auipc	s2,0x1
f900007c:	89490913          	addi	s2,s2,-1900 # f900090c <__init_array_end>
f9000080:	40890933          	sub	s2,s2,s0
f9000084:	00112623          	sw	ra,12(sp)
f9000088:	00912223          	sw	s1,4(sp)
f900008c:	40295913          	srai	s2,s2,0x2
f9000090:	00090e63          	beqz	s2,f90000ac <__libc_init_array+0x48>
f9000094:	00000493          	li	s1,0
f9000098:	00042783          	lw	a5,0(s0)
f900009c:	00148493          	addi	s1,s1,1
f90000a0:	00440413          	addi	s0,s0,4
f90000a4:	000780e7          	jalr	a5
f90000a8:	fe9918e3          	bne	s2,s1,f9000098 <__libc_init_array+0x34>
f90000ac:	00001417          	auipc	s0,0x1
f90000b0:	86040413          	addi	s0,s0,-1952 # f900090c <__init_array_end>
f90000b4:	00001917          	auipc	s2,0x1
f90000b8:	85890913          	addi	s2,s2,-1960 # f900090c <__init_array_end>
f90000bc:	40890933          	sub	s2,s2,s0
f90000c0:	40295913          	srai	s2,s2,0x2
f90000c4:	00090e63          	beqz	s2,f90000e0 <__libc_init_array+0x7c>
f90000c8:	00000493          	li	s1,0
f90000cc:	00042783          	lw	a5,0(s0)
f90000d0:	00148493          	addi	s1,s1,1
f90000d4:	00440413          	addi	s0,s0,4
f90000d8:	000780e7          	jalr	a5
f90000dc:	fe9918e3          	bne	s2,s1,f90000cc <__libc_init_array+0x68>
f90000e0:	00c12083          	lw	ra,12(sp)
f90000e4:	00812403          	lw	s0,8(sp)
f90000e8:	00412483          	lw	s1,4(sp)
f90000ec:	00012903          	lw	s2,0(sp)
f90000f0:	01010113          	addi	sp,sp,16
f90000f4:	00008067          	ret

f90000f8 <uart_writeAvailability>:
#include "type.h"
#include "soc.h"


    static inline u32 read_u32(u32 address){
        return *((volatile u32*) address);
f90000f8:	00452503          	lw	a0,4(a0)
        enum UartStop stop;
        u32 clockDivider;
    } Uart_Config;
    
    static u32 uart_writeAvailability(u32 reg){
        return (read_u32(reg + UART_STATUS) >> 16) & 0xFF;
f90000fc:	01055513          	srli	a0,a0,0x10
    }
f9000100:	0ff57513          	andi	a0,a0,255
f9000104:	00008067          	ret

f9000108 <uart_write>:
    static u32 uart_readOccupancy(u32 reg){
        return read_u32(reg + UART_STATUS) >> 24;
    }
    
    static void uart_write(u32 reg, char data){
f9000108:	ff010113          	addi	sp,sp,-16
f900010c:	00112623          	sw	ra,12(sp)
f9000110:	00812423          	sw	s0,8(sp)
f9000114:	00912223          	sw	s1,4(sp)
f9000118:	00050413          	mv	s0,a0
f900011c:	00058493          	mv	s1,a1
        while(uart_writeAvailability(reg) == 0);
f9000120:	00040513          	mv	a0,s0
f9000124:	fd5ff0ef          	jal	ra,f90000f8 <uart_writeAvailability>
f9000128:	fe050ce3          	beqz	a0,f9000120 <uart_write+0x18>
    }
    
    static inline void write_u32(u32 data, u32 address){
        *((volatile u32*) address) = data;
f900012c:	00942023          	sw	s1,0(s0)
        write_u32(data, reg + UART_DATA);
    }
f9000130:	00c12083          	lw	ra,12(sp)
f9000134:	00812403          	lw	s0,8(sp)
f9000138:	00412483          	lw	s1,4(sp)
f900013c:	01010113          	addi	sp,sp,16
f9000140:	00008067          	ret

f9000144 <uart_writeStr>:
    
    static void uart_writeStr(u32 reg, const char* str){
f9000144:	ff010113          	addi	sp,sp,-16
f9000148:	00112623          	sw	ra,12(sp)
f900014c:	00812423          	sw	s0,8(sp)
f9000150:	00912223          	sw	s1,4(sp)
f9000154:	00050493          	mv	s1,a0
f9000158:	00058413          	mv	s0,a1
        while(*str) uart_write(reg, *str++);
f900015c:	00044583          	lbu	a1,0(s0)
f9000160:	00058a63          	beqz	a1,f9000174 <uart_writeStr+0x30>
f9000164:	00140413          	addi	s0,s0,1
f9000168:	00048513          	mv	a0,s1
f900016c:	f9dff0ef          	jal	ra,f9000108 <uart_write>
f9000170:	fedff06f          	j	f900015c <uart_writeStr+0x18>
    }
f9000174:	00c12083          	lw	ra,12(sp)
f9000178:	00812403          	lw	s0,8(sp)
f900017c:	00412483          	lw	s1,4(sp)
f9000180:	01010113          	addi	sp,sp,16
f9000184:	00008067          	ret

f9000188 <clint_uDelay>:
    
        return (((u64)hi) << 32) | lo;
    }
    
    static void clint_uDelay(u32 usec, u32 hz, u32 reg){
        u32 mTimePerUsec = hz/1000000;
f9000188:	000f47b7          	lui	a5,0xf4
f900018c:	24078793          	addi	a5,a5,576 # f4240 <__stack_size+0xf3240>
f9000190:	02f5d5b3          	divu	a1,a1,a5
    readReg_u32 (clint_getTimeLow , CLINT_TIME_ADDR)
f9000194:	0000c7b7          	lui	a5,0xc
f9000198:	ff878793          	addi	a5,a5,-8 # bff8 <__stack_size+0xaff8>
f900019c:	00f60633          	add	a2,a2,a5
        return *((volatile u32*) address);
f90001a0:	00062783          	lw	a5,0(a2)
        u32 limit = clint_getTimeLow(reg) + usec*mTimePerUsec;
f90001a4:	02a58533          	mul	a0,a1,a0
f90001a8:	00f50533          	add	a0,a0,a5
f90001ac:	00062783          	lw	a5,0(a2)
        while((int32_t)(limit-(clint_getTimeLow(reg))) >= 0);
f90001b0:	40f507b3          	sub	a5,a0,a5
f90001b4:	fe07dce3          	bgez	a5,f90001ac <clint_uDelay+0x24>
    }
f90001b8:	00008067          	ret

f90001bc <bsp_printHex>:
#define configCPU_CLOCK_HZ              ( ( uint32_t ) ( BSP_CLINT_HZ ) )
#define BSP_LED_GPIO                    SYSTEM_GPIO_0_IO_CTRL
#define BSP_LED_MASK                    0xf

    static void bsp_printHex(uint32_t val)
    {
f90001bc:	ff010113          	addi	sp,sp,-16
f90001c0:	00112623          	sw	ra,12(sp)
f90001c4:	00812423          	sw	s0,8(sp)
f90001c8:	00912223          	sw	s1,4(sp)
f90001cc:	00050493          	mv	s1,a0
        uint32_t digits;
        digits =8;

        for (int i = (4*digits)-4; i >= 0; i -= 4) {
f90001d0:	01c00413          	li	s0,28
f90001d4:	0280006f          	j	f90001fc <bsp_printHex+0x40>
            uart_write(BSP_UART_TERMINAL, "0123456789ABCDEF"[(val >> i) % 16]);
f90001d8:	0084d7b3          	srl	a5,s1,s0
f90001dc:	00f7f713          	andi	a4,a5,15
f90001e0:	f90017b7          	lui	a5,0xf9001
f90001e4:	90c78793          	addi	a5,a5,-1780 # f900090c <__freertos_irq_stack_top+0xffffec8c>
f90001e8:	00e787b3          	add	a5,a5,a4
f90001ec:	0007c583          	lbu	a1,0(a5)
f90001f0:	f8010537          	lui	a0,0xf8010
f90001f4:	f15ff0ef          	jal	ra,f9000108 <uart_write>
        for (int i = (4*digits)-4; i >= 0; i -= 4) {
f90001f8:	ffc40413          	addi	s0,s0,-4
f90001fc:	fc045ee3          	bgez	s0,f90001d8 <bsp_printHex+0x1c>
        }
        uart_write(BSP_UART_TERMINAL, '\n');
f9000200:	00a00593          	li	a1,10
f9000204:	f8010537          	lui	a0,0xf8010
f9000208:	f01ff0ef          	jal	ra,f9000108 <uart_write>
        uart_write(BSP_UART_TERMINAL, '\r');
f900020c:	00d00593          	li	a1,13
f9000210:	f8010537          	lui	a0,0xf8010
f9000214:	ef5ff0ef          	jal	ra,f9000108 <uart_write>
    }
f9000218:	00c12083          	lw	ra,12(sp)
f900021c:	00812403          	lw	s0,8(sp)
f9000220:	00412483          	lw	s1,4(sp)
f9000224:	01010113          	addi	sp,sp,16
f9000228:	00008067          	ret

f900022c <bsp_print>:
    
    static void bsp_print(uint8_t * data) {
f900022c:	ff010113          	addi	sp,sp,-16
f9000230:	00112623          	sw	ra,12(sp)
        uart_writeStr(BSP_UART_TERMINAL, (const char*)data);
f9000234:	00050593          	mv	a1,a0
f9000238:	f8010537          	lui	a0,0xf8010
f900023c:	f09ff0ef          	jal	ra,f9000144 <uart_writeStr>
        uart_write(BSP_UART_TERMINAL, '\n');
f9000240:	00a00593          	li	a1,10
f9000244:	f8010537          	lui	a0,0xf8010
f9000248:	ec1ff0ef          	jal	ra,f9000108 <uart_write>
        uart_write(BSP_UART_TERMINAL, '\r');
f900024c:	00d00593          	li	a1,13
f9000250:	f8010537          	lui	a0,0xf8010
f9000254:	eb5ff0ef          	jal	ra,f9000108 <uart_write>
    }
f9000258:	00c12083          	lw	ra,12(sp)
f900025c:	01010113          	addi	sp,sp,16
f9000260:	00008067          	ret

f9000264 <bsp_printReg>:
        bsp_printHexDigit(byte >> 4);
        bsp_printHexDigit(byte & 0x0F);
    }

    static void bsp_printReg(char* s, u32 data)
    {
f9000264:	ff010113          	addi	sp,sp,-16
f9000268:	00112623          	sw	ra,12(sp)
f900026c:	00812423          	sw	s0,8(sp)
f9000270:	00058413          	mv	s0,a1
        bsp_putString(s);
f9000274:	00050593          	mv	a1,a0
f9000278:	f8010537          	lui	a0,0xf8010
f900027c:	ec9ff0ef          	jal	ra,f9000144 <uart_writeStr>
        bsp_printHex(data);
f9000280:	00040513          	mv	a0,s0
f9000284:	f39ff0ef          	jal	ra,f90001bc <bsp_printHex>
    }
f9000288:	00c12083          	lw	ra,12(sp)
f900028c:	00812403          	lw	s0,8(sp)
f9000290:	01010113          	addi	sp,sp,16
f9000294:	00008067          	ret

f9000298 <MacSpeedSet>:
	}
}

/************************** Function File ***************************/
static void MacSpeedSet(u32 speed)
{
f9000298:	ff010113          	addi	sp,sp,-16
f900029c:	00112623          	sw	ra,12(sp)
f90002a0:	f81006b7          	lui	a3,0xf8100
f90002a4:	0086a783          	lw	a5,8(a3) # f8100008 <__freertos_irq_stack_top+0xff0fe388>
	u32 Value;
	//Set Mac Speed
	Value = read_u32(TSEMAC_CSR+0x008) & ETH_SPEED_MASK;
f90002a8:	fff90737          	lui	a4,0xfff90
f90002ac:	fff70713          	addi	a4,a4,-1 # fff8ffff <__freertos_irq_stack_top+0x6f8e37f>
f90002b0:	00e7f7b3          	and	a5,a5,a4
	Value |= (speed&0x7)<<16;
f90002b4:	01051513          	slli	a0,a0,0x10
f90002b8:	00070737          	lui	a4,0x70
f90002bc:	00e57533          	and	a0,a0,a4
f90002c0:	00f56533          	or	a0,a0,a5
        *((volatile u32*) address) = data;
f90002c4:	00a6a423          	sw	a0,8(a3)
	write_u32(Value, (TSEMAC_CSR+0x008));
	if(PRINTF_EN == 1) {
	    bsp_print("Info : Set Mac Speed.");
f90002c8:	f9001537          	lui	a0,0xf9001
f90002cc:	92050513          	addi	a0,a0,-1760 # f9000920 <__freertos_irq_stack_top+0xffffeca0>
f90002d0:	f5dff0ef          	jal	ra,f900022c <bsp_print>
	}
}
f90002d4:	00c12083          	lw	ra,12(sp)
f90002d8:	01010113          	addi	sp,sp,16
f90002dc:	00008067          	ret

f90002e0 <MacIpgSet>:
	}
}

/************************** Function File ***************************/
static void MacIpgSet(u32 ipg)
{
f90002e0:	ff010113          	addi	sp,sp,-16
f90002e4:	00112623          	sw	ra,12(sp)
	//Set Mac IPG
	write_u32(ipg&0x3f, (TSEMAC_CSR+0x5C));
f90002e8:	03f57513          	andi	a0,a0,63
f90002ec:	f81007b7          	lui	a5,0xf8100
f90002f0:	04a7ae23          	sw	a0,92(a5) # f810005c <__freertos_irq_stack_top+0xff0fe3dc>
	if(PRINTF_EN == 1) {
	    bsp_print("Info : Set Mac IPG.");
f90002f4:	f9001537          	lui	a0,0xf9001
f90002f8:	93850513          	addi	a0,a0,-1736 # f9000938 <__freertos_irq_stack_top+0xffffecb8>
f90002fc:	f31ff0ef          	jal	ra,f900022c <bsp_print>
	}
}
f9000300:	00c12083          	lw	ra,12(sp)
f9000304:	01010113          	addi	sp,sp,16
f9000308:	00008067          	ret

f900030c <MacCntClean>:
	write_u32(Value, (TSEMAC_CSR+0x008));
}

/************************** Function File ***************************/
static void MacCntClean()
{
f900030c:	ff010113          	addi	sp,sp,-16
f9000310:	00112623          	sw	ra,12(sp)
f9000314:	00812423          	sw	s0,8(sp)
f9000318:	00912223          	sw	s1,4(sp)
        return *((volatile u32*) address);
f900031c:	f81004b7          	lui	s1,0xf8100
f9000320:	0084a403          	lw	s0,8(s1) # f8100008 <__freertos_irq_stack_top+0xff0fe388>
	u32 Value;
	//Set cnt_reset 1
	Value = read_u32(TSEMAC_CSR+0x008) & CNT_RST_MASK;
f9000324:	800007b7          	lui	a5,0x80000
f9000328:	fff7c713          	not	a4,a5
f900032c:	00e47433          	and	s0,s0,a4
	Value |= 0x80000000;
f9000330:	00f467b3          	or	a5,s0,a5
        *((volatile u32*) address) = data;
f9000334:	00f4a423          	sw	a5,8(s1)
	write_u32(Value, (TSEMAC_CSR+0x008));
	bsp_uDelay(1);
f9000338:	f8b00637          	lui	a2,0xf8b00
f900033c:	02faf5b7          	lui	a1,0x2faf
f9000340:	08058593          	addi	a1,a1,128 # 2faf080 <__stack_size+0x2fae080>
f9000344:	00100513          	li	a0,1
f9000348:	e41ff0ef          	jal	ra,f9000188 <clint_uDelay>
f900034c:	0084a423          	sw	s0,8(s1)
	//Set cnt_reset 0
	Value &= CNT_RST_MASK;
	Value |= 0x0;
	write_u32(Value, (TSEMAC_CSR+0x008));
	if(PRINTF_EN == 1) {
		bsp_print("Info : Mac Reset Statistics Counters.");
f9000350:	f9001537          	lui	a0,0xf9001
f9000354:	94c50513          	addi	a0,a0,-1716 # f900094c <__freertos_irq_stack_top+0xffffeccc>
f9000358:	ed5ff0ef          	jal	ra,f900022c <bsp_print>
	}
}
f900035c:	00c12083          	lw	ra,12(sp)
f9000360:	00812403          	lw	s0,8(sp)
f9000364:	00412483          	lw	s1,4(sp)
f9000368:	01010113          	addi	sp,sp,16
f900036c:	00008067          	ret

f9000370 <CntMonitor>:

/************************** Function File ***************************/
static void CntMonitor()
{
f9000370:	ff010113          	addi	sp,sp,-16
f9000374:	00112623          	sw	ra,12(sp)
f9000378:	00812423          	sw	s0,8(sp)
f900037c:	00912223          	sw	s1,4(sp)
	bsp_print("--------------------");
f9000380:	f90014b7          	lui	s1,0xf9001
f9000384:	97448513          	addi	a0,s1,-1676 # f9000974 <__freertos_irq_stack_top+0xffffecf4>
f9000388:	ea5ff0ef          	jal	ra,f900022c <bsp_print>
        return *((volatile u32*) address);
f900038c:	f8100437          	lui	s0,0xf8100
f9000390:	06842583          	lw	a1,104(s0) # f8100068 <__freertos_irq_stack_top+0xff0fe3e8>
	bsp_printReg("aFramesTransmittedOK :"       , read_u32(TSEMAC_CSR+0x68));
f9000394:	f9001537          	lui	a0,0xf9001
f9000398:	98c50513          	addi	a0,a0,-1652 # f900098c <__freertos_irq_stack_top+0xffffed0c>
f900039c:	ec9ff0ef          	jal	ra,f9000264 <bsp_printReg>
f90003a0:	06c42583          	lw	a1,108(s0)
	bsp_printReg("aFramesReceivedOK :"          , read_u32(TSEMAC_CSR+0x6c));
f90003a4:	f9001537          	lui	a0,0xf9001
f90003a8:	9a450513          	addi	a0,a0,-1628 # f90009a4 <__freertos_irq_stack_top+0xffffed24>
f90003ac:	eb9ff0ef          	jal	ra,f9000264 <bsp_printReg>
f90003b0:	08842583          	lw	a1,136(s0)
	bsp_printReg("ifInErrors :"                 , read_u32(TSEMAC_CSR+0x88));
f90003b4:	f9001537          	lui	a0,0xf9001
f90003b8:	9b850513          	addi	a0,a0,-1608 # f90009b8 <__freertos_irq_stack_top+0xffffed38>
f90003bc:	ea9ff0ef          	jal	ra,f9000264 <bsp_printReg>
f90003c0:	08c42583          	lw	a1,140(s0)
	bsp_printReg("ifOutErrors :"                , read_u32(TSEMAC_CSR+0x8c));
f90003c4:	f9001537          	lui	a0,0xf9001
f90003c8:	9c850513          	addi	a0,a0,-1592 # f90009c8 <__freertos_irq_stack_top+0xffffed48>
f90003cc:	e99ff0ef          	jal	ra,f9000264 <bsp_printReg>
f90003d0:	0b442583          	lw	a1,180(s0)
	bsp_printReg("etherStatsPkts :"             , read_u32(TSEMAC_CSR+0xb4));
f90003d4:	f9001537          	lui	a0,0xf9001
f90003d8:	9d850513          	addi	a0,a0,-1576 # f90009d8 <__freertos_irq_stack_top+0xffffed58>
f90003dc:	e89ff0ef          	jal	ra,f9000264 <bsp_printReg>
f90003e0:	0b842583          	lw	a1,184(s0)
	bsp_printReg("etherStatsUndersizePkts :"    , read_u32(TSEMAC_CSR+0xb8));
f90003e4:	f9001537          	lui	a0,0xf9001
f90003e8:	9ec50513          	addi	a0,a0,-1556 # f90009ec <__freertos_irq_stack_top+0xffffed6c>
f90003ec:	e79ff0ef          	jal	ra,f9000264 <bsp_printReg>
f90003f0:	0bc42583          	lw	a1,188(s0)
	bsp_printReg("etherStatsOversizePkts :"     , read_u32(TSEMAC_CSR+0xbc));
f90003f4:	f9001537          	lui	a0,0xf9001
f90003f8:	a0850513          	addi	a0,a0,-1528 # f9000a08 <__freertos_irq_stack_top+0xffffed88>
f90003fc:	e69ff0ef          	jal	ra,f9000264 <bsp_printReg>
f9000400:	09c42583          	lw	a1,156(s0)
	bsp_printReg("aRxFilterFramesErrors :"      , read_u32(TSEMAC_CSR+0x9c));
f9000404:	f9001537          	lui	a0,0xf9001
f9000408:	a2450513          	addi	a0,a0,-1500 # f9000a24 <__freertos_irq_stack_top+0xffffeda4>
f900040c:	e59ff0ef          	jal	ra,f9000264 <bsp_printReg>
f9000410:	07042583          	lw	a1,112(s0)
	bsp_printReg("aFrameCheckSequenceErrors :"  , read_u32(TSEMAC_CSR+0x70));
f9000414:	f9001537          	lui	a0,0xf9001
f9000418:	a3c50513          	addi	a0,a0,-1476 # f9000a3c <__freertos_irq_stack_top+0xffffedbc>
f900041c:	e49ff0ef          	jal	ra,f9000264 <bsp_printReg>
f9000420:	08042583          	lw	a1,128(s0)
	bsp_printReg("aTxPAUSEMACCtrlFrames :"      , read_u32(TSEMAC_CSR+0x80));
f9000424:	f9001537          	lui	a0,0xf9001
f9000428:	a5850513          	addi	a0,a0,-1448 # f9000a58 <__freertos_irq_stack_top+0xffffedd8>
f900042c:	e39ff0ef          	jal	ra,f9000264 <bsp_printReg>
f9000430:	08442583          	lw	a1,132(s0)
	bsp_printReg("aRxPAUSEMACCtrlFrames :"      , read_u32(TSEMAC_CSR+0x84));
f9000434:	f9001537          	lui	a0,0xf9001
f9000438:	a7050513          	addi	a0,a0,-1424 # f9000a70 <__freertos_irq_stack_top+0xffffedf0>
f900043c:	e29ff0ef          	jal	ra,f9000264 <bsp_printReg>
	//bsp_printReg("MAC Destination Address H:"    , read_u32(TSEMAC_CSR+0x188));
	//bsp_printReg("MAC Destination Address L:"    , read_u32(TSEMAC_CSR+0x184));
	bsp_print("--------------------");
f9000440:	97448513          	addi	a0,s1,-1676
f9000444:	de9ff0ef          	jal	ra,f900022c <bsp_print>
}
f9000448:	00c12083          	lw	ra,12(sp)
f900044c:	00812403          	lw	s0,8(sp)
f9000450:	00412483          	lw	s1,4(sp)
f9000454:	01010113          	addi	sp,sp,16
f9000458:	00008067          	ret

f900045c <MacNormalInit>:

/************************** Function File ***************************/
static void MacNormalInit(u32 speed)
{
f900045c:	ff010113          	addi	sp,sp,-16
f9000460:	00112623          	sw	ra,12(sp)
	MacSpeedSet(speed);
f9000464:	e35ff0ef          	jal	ra,f9000298 <MacSpeedSet>
	MacIpgSet(0x0C);
f9000468:	00c00513          	li	a0,12
f900046c:	e75ff0ef          	jal	ra,f90002e0 <MacIpgSet>
}
f9000470:	00c12083          	lw	ra,12(sp)
f9000474:	01010113          	addi	sp,sp,16
f9000478:	00008067          	ret

f900047c <Phy_Wr>:
#include "tseDemo.h"


/************************** Function File ***************************/
static void Phy_Wr(u32 RegAddr, u32 Data)
{
f900047c:	ff010113          	addi	sp,sp,-16
f9000480:	00112623          	sw	ra,12(sp)
f9000484:	00812423          	sw	s0,8(sp)
f9000488:	00058413          	mv	s0,a1
    write_u32(((PHY_ADDR&0x1f)<<8)|(RegAddr&0x1f), (TSEMAC_CSR+0x108));
f900048c:	01f57713          	andi	a4,a0,31
f9000490:	70076713          	ori	a4,a4,1792
        *((volatile u32*) address) = data;
f9000494:	f81007b7          	lui	a5,0xf8100
f9000498:	10e7a423          	sw	a4,264(a5) # f8100108 <__freertos_irq_stack_top+0xff0fe488>
f900049c:	10b7a623          	sw	a1,268(a5)
f90004a0:	00200713          	li	a4,2
f90004a4:	10e7a223          	sw	a4,260(a5)
    write_u32(Data, (TSEMAC_CSR+0x10c));
    write_u32(0x2, (TSEMAC_CSR+0x104));
    if(PRINTF_EN == 1) {
        bsp_printReg("Wr Phy Addr : ", RegAddr);
f90004a8:	00050593          	mv	a1,a0
f90004ac:	f9001537          	lui	a0,0xf9001
f90004b0:	a8850513          	addi	a0,a0,-1400 # f9000a88 <__freertos_irq_stack_top+0xffffee08>
f90004b4:	db1ff0ef          	jal	ra,f9000264 <bsp_printReg>
        bsp_printReg("Wr Phy Data : ", Data);
f90004b8:	00040593          	mv	a1,s0
f90004bc:	f9001537          	lui	a0,0xf9001
f90004c0:	a9850513          	addi	a0,a0,-1384 # f9000a98 <__freertos_irq_stack_top+0xffffee18>
f90004c4:	da1ff0ef          	jal	ra,f9000264 <bsp_printReg>
    }
}
f90004c8:	00c12083          	lw	ra,12(sp)
f90004cc:	00812403          	lw	s0,8(sp)
f90004d0:	01010113          	addi	sp,sp,16
f90004d4:	00008067          	ret

f90004d8 <Phy_Rd>:

static u32 Phy_Rd(u32 RegAddr)
{
f90004d8:	ff010113          	addi	sp,sp,-16
f90004dc:	00112623          	sw	ra,12(sp)
f90004e0:	00812423          	sw	s0,8(sp)
f90004e4:	00912223          	sw	s1,4(sp)
f90004e8:	00050493          	mv	s1,a0
    u32 Value;
    write_u32(((PHY_ADDR&0x1f)<<8)|(RegAddr&0x1f), (TSEMAC_CSR+0x108));
f90004ec:	01f57793          	andi	a5,a0,31
f90004f0:	7007e793          	ori	a5,a5,1792
f90004f4:	f8100437          	lui	s0,0xf8100
f90004f8:	10f42423          	sw	a5,264(s0) # f8100108 <__freertos_irq_stack_top+0xff0fe488>
f90004fc:	00100793          	li	a5,1
f9000500:	10f42223          	sw	a5,260(s0)
    write_u32(0x1, (TSEMAC_CSR+0x104));
    bsp_uDelay(1000);
f9000504:	f8b00637          	lui	a2,0xf8b00
f9000508:	02faf5b7          	lui	a1,0x2faf
f900050c:	08058593          	addi	a1,a1,128 # 2faf080 <__stack_size+0x2fae080>
f9000510:	3e800513          	li	a0,1000
f9000514:	c75ff0ef          	jal	ra,f9000188 <clint_uDelay>
        return *((volatile u32*) address);
f9000518:	11042403          	lw	s0,272(s0)
    Value = read_u32(TSEMAC_CSR+0x110);
    if(PRINTF_EN == 1) {
        bsp_printReg("Rd Phy Addr : ", RegAddr);
f900051c:	00048593          	mv	a1,s1
f9000520:	f9001537          	lui	a0,0xf9001
f9000524:	aa850513          	addi	a0,a0,-1368 # f9000aa8 <__freertos_irq_stack_top+0xffffee28>
f9000528:	d3dff0ef          	jal	ra,f9000264 <bsp_printReg>
        bsp_printReg("Return Value : ", Value);
f900052c:	00040593          	mv	a1,s0
f9000530:	f9001537          	lui	a0,0xf9001
f9000534:	ab850513          	addi	a0,a0,-1352 # f9000ab8 <__freertos_irq_stack_top+0xffffee38>
f9000538:	d2dff0ef          	jal	ra,f9000264 <bsp_printReg>
    }
    return Value;
}
f900053c:	00040513          	mv	a0,s0
f9000540:	00c12083          	lw	ra,12(sp)
f9000544:	00812403          	lw	s0,8(sp)
f9000548:	00412483          	lw	s1,4(sp)
f900054c:	01010113          	addi	sp,sp,16
f9000550:	00008067          	ret

f9000554 <PhyDlySetRXTX>:

/************************** Function File ***************************/
static void PhyDlySetRXTX(int RX_delay, int TX_delay)
{
f9000554:	fe010113          	addi	sp,sp,-32
f9000558:	00112e23          	sw	ra,28(sp)
f900055c:	00812c23          	sw	s0,24(sp)
f9000560:	00912a23          	sw	s1,20(sp)
f9000564:	01212823          	sw	s2,16(sp)
f9000568:	01312623          	sw	s3,12(sp)
f900056c:	01412423          	sw	s4,8(sp)
f9000570:	00050413          	mv	s0,a0
f9000574:	00058913          	mv	s2,a1
    u32 Value;
    bsp_print("Start Info : Set Phy Delay.");
f9000578:	f9001537          	lui	a0,0xf9001
f900057c:	ac850513          	addi	a0,a0,-1336 # f9000ac8 <__freertos_irq_stack_top+0xffffee48>
f9000580:	cadff0ef          	jal	ra,f900022c <bsp_print>
    Phy_Wr(0x1F,0x0168);
f9000584:	16800593          	li	a1,360
f9000588:	01f00513          	li	a0,31
f900058c:	ef1ff0ef          	jal	ra,f900047c <Phy_Wr>
    Phy_Wr(0x1E,0x8040);
f9000590:	00008a37          	lui	s4,0x8
f9000594:	040a0593          	addi	a1,s4,64 # 8040 <__stack_size+0x7040>
f9000598:	01e00513          	li	a0,30
f900059c:	ee1ff0ef          	jal	ra,f900047c <Phy_Wr>
    Phy_Wr(0x1E,0x401E);
f90005a0:	000049b7          	lui	s3,0x4
f90005a4:	01e98593          	addi	a1,s3,30 # 401e <__stack_size+0x301e>
f90005a8:	01e00513          	li	a0,30
f90005ac:	ed1ff0ef          	jal	ra,f900047c <Phy_Wr>
    Value = Phy_Rd(0x1F) & 0xFFFF;
f90005b0:	01f00513          	li	a0,31
f90005b4:	f25ff0ef          	jal	ra,f90004d8 <Phy_Rd>

    Value &= 0xFF00;
f90005b8:	000105b7          	lui	a1,0x10
f90005bc:	f0058593          	addi	a1,a1,-256 # ff00 <__stack_size+0xef00>
f90005c0:	00b574b3          	and	s1,a0,a1
    RX_delay &= 0xF;
f90005c4:	00f47413          	andi	s0,s0,15
    TX_delay &= 0xF;
f90005c8:	00f97913          	andi	s2,s2,15
    bsp_printReg("Setup New Value = ", RX_delay);
f90005cc:	00040593          	mv	a1,s0
f90005d0:	f9001537          	lui	a0,0xf9001
f90005d4:	ae450513          	addi	a0,a0,-1308 # f9000ae4 <__freertos_irq_stack_top+0xffffee64>
f90005d8:	c8dff0ef          	jal	ra,f9000264 <bsp_printReg>

    Value = ((Value) | (RX_delay<<4) | (TX_delay));
f90005dc:	00441413          	slli	s0,s0,0x4
f90005e0:	009465b3          	or	a1,s0,s1
    Phy_Wr(0x1F,Value);
f90005e4:	0125e5b3          	or	a1,a1,s2
f90005e8:	01f00513          	li	a0,31
f90005ec:	e91ff0ef          	jal	ra,f900047c <Phy_Wr>
    Phy_Wr(0x1E,0x801E);
f90005f0:	01ea0593          	addi	a1,s4,30
f90005f4:	01e00513          	li	a0,30
f90005f8:	e85ff0ef          	jal	ra,f900047c <Phy_Wr>
    Phy_Wr(0x1E,0x401E);
f90005fc:	01e98593          	addi	a1,s3,30
f9000600:	01e00513          	li	a0,30
f9000604:	e79ff0ef          	jal	ra,f900047c <Phy_Wr>
    Value = Phy_Rd(0x1F) & 0xFFFF;
f9000608:	01f00513          	li	a0,31
f900060c:	ecdff0ef          	jal	ra,f90004d8 <Phy_Rd>
    bsp_printReg("Read New Value = ", Value);
f9000610:	01051593          	slli	a1,a0,0x10
f9000614:	0105d593          	srli	a1,a1,0x10
f9000618:	f9001537          	lui	a0,0xf9001
f900061c:	af850513          	addi	a0,a0,-1288 # f9000af8 <__freertos_irq_stack_top+0xffffee78>
f9000620:	c45ff0ef          	jal	ra,f9000264 <bsp_printReg>
}
f9000624:	01c12083          	lw	ra,28(sp)
f9000628:	01812403          	lw	s0,24(sp)
f900062c:	01412483          	lw	s1,20(sp)
f9000630:	01012903          	lw	s2,16(sp)
f9000634:	00c12983          	lw	s3,12(sp)
f9000638:	00812a03          	lw	s4,8(sp)
f900063c:	02010113          	addi	sp,sp,32
f9000640:	00008067          	ret

f9000644 <PhyNormalInit>:

/************************** Function File ***************************/
static u32 PhyNormalInit()
{
f9000644:	ff010113          	addi	sp,sp,-16
f9000648:	00112623          	sw	ra,12(sp)
	PhyDlySetRXTX(15, 8); //change here when trying Linked partner mode
f900064c:	00800593          	li	a1,8
f9000650:	00f00513          	li	a0,15
f9000654:	f01ff0ef          	jal	ra,f9000554 <PhyDlySetRXTX>

	u32 Value;
	if(PRINTF_EN == 1) {
		bsp_print("Wait Ethernet Link up...");
f9000658:	f9001537          	lui	a0,0xf9001
f900065c:	b0c50513          	addi	a0,a0,-1268 # f9000b0c <__freertos_irq_stack_top+0xffffee8c>
f9000660:	bcdff0ef          	jal	ra,f900022c <bsp_print>
	}
    // to read Basic control
	Phy_Rd(0x0); 
f9000664:	00000513          	li	a0,0
f9000668:	e71ff0ef          	jal	ra,f90004d8 <Phy_Rd>
    // to read phy ID
	Phy_Rd(0x2); 
f900066c:	00200513          	li	a0,2
f9000670:	e69ff0ef          	jal	ra,f90004d8 <Phy_Rd>
    // to read phy ID
	Phy_Rd(0x3); 
f9000674:	00300513          	li	a0,3
f9000678:	e61ff0ef          	jal	ra,f90004d8 <Phy_Rd>

	//Unlock Extended registers
	Phy_Wr(0x1f, 0x0168);
f900067c:	16800593          	li	a1,360
f9000680:	01f00513          	li	a0,31
f9000684:	df9ff0ef          	jal	ra,f900047c <Phy_Wr>
	Phy_Wr(0x1e, 0x8040);
f9000688:	000085b7          	lui	a1,0x8
f900068c:	04058593          	addi	a1,a1,64 # 8040 <__stack_size+0x7040>
f9000690:	01e00513          	li	a0,30
f9000694:	de9ff0ef          	jal	ra,f900047c <Phy_Wr>
f9000698:	04c0006f          	j	f90006e4 <PhyNormalInit+0xa0>
		Value = Phy_Rd(0x11);
        //Link up and DUPLEX mode
		if((Value&0x2400) == 0x2400) {
			if((Value&0xc000) == 0x8000) {          //1000Mbps
				if(PRINTF_EN == 1) {
					bsp_print("Info : Phy Link up on 1000Mbps.");
f900069c:	f9001537          	lui	a0,0xf9001
f90006a0:	b2850513          	addi	a0,a0,-1240 # f9000b28 <__freertos_irq_stack_top+0xffffeea8>
f90006a4:	b89ff0ef          	jal	ra,f900022c <bsp_print>
				}
				return 0x4;
f90006a8:	00400513          	li	a0,4
				return 0x1;
			}
		}
		bsp_uDelay(100000);
	}
}
f90006ac:	00c12083          	lw	ra,12(sp)
f90006b0:	01010113          	addi	sp,sp,16
f90006b4:	00008067          	ret
					bsp_print("Info : Phy Link up on 100Mbps.");
f90006b8:	f9001537          	lui	a0,0xf9001
f90006bc:	b4850513          	addi	a0,a0,-1208 # f9000b48 <__freertos_irq_stack_top+0xffffeec8>
f90006c0:	b6dff0ef          	jal	ra,f900022c <bsp_print>
				return 0x2;
f90006c4:	00200513          	li	a0,2
f90006c8:	fe5ff06f          	j	f90006ac <PhyNormalInit+0x68>
		bsp_uDelay(100000);
f90006cc:	f8b00637          	lui	a2,0xf8b00
f90006d0:	02faf5b7          	lui	a1,0x2faf
f90006d4:	08058593          	addi	a1,a1,128 # 2faf080 <__stack_size+0x2fae080>
f90006d8:	00018537          	lui	a0,0x18
f90006dc:	6a050513          	addi	a0,a0,1696 # 186a0 <__stack_size+0x176a0>
f90006e0:	aa9ff0ef          	jal	ra,f9000188 <clint_uDelay>
		Value = Phy_Rd(0x11);
f90006e4:	01100513          	li	a0,17
f90006e8:	df1ff0ef          	jal	ra,f90004d8 <Phy_Rd>
		if((Value&0x2400) == 0x2400) {
f90006ec:	000027b7          	lui	a5,0x2
f90006f0:	40078793          	addi	a5,a5,1024 # 2400 <__stack_size+0x1400>
f90006f4:	00f57733          	and	a4,a0,a5
f90006f8:	fcf71ae3          	bne	a4,a5,f90006cc <PhyNormalInit+0x88>
			if((Value&0xc000) == 0x8000) {          //1000Mbps
f90006fc:	0000c7b7          	lui	a5,0xc
f9000700:	00f57533          	and	a0,a0,a5
f9000704:	000087b7          	lui	a5,0x8
f9000708:	f8f50ae3          	beq	a0,a5,f900069c <PhyNormalInit+0x58>
			} else if((Value&0xc000) == 0x4000) {   //100Mbps
f900070c:	000047b7          	lui	a5,0x4
f9000710:	faf504e3          	beq	a0,a5,f90006b8 <PhyNormalInit+0x74>
			} else if((Value&0xc000) == 0x0) {      //10Mbps
f9000714:	fa051ce3          	bnez	a0,f90006cc <PhyNormalInit+0x88>
					bsp_print("Info : Phy Link up on 10Mbps.");
f9000718:	f9001537          	lui	a0,0xf9001
f900071c:	b6850513          	addi	a0,a0,-1176 # f9000b68 <__freertos_irq_stack_top+0xffffeee8>
f9000720:	b0dff0ef          	jal	ra,f900022c <bsp_print>
				return 0x1;
f9000724:	00100513          	li	a0,1
f9000728:	f85ff06f          	j	f90006ac <PhyNormalInit+0x68>

f900072c <PhyLoopInit>:

/************************** Function File ***************************/
static void PhyLoopInit(u32 speed)
{
f900072c:	ff010113          	addi	sp,sp,-16
f9000730:	00112623          	sw	ra,12(sp)
f9000734:	00812423          	sw	s0,8(sp)
f9000738:	00050413          	mv	s0,a0
	PhyDlySetRXTX(15, 15); //change here when trying Normal_mode
f900073c:	00f00593          	li	a1,15
f9000740:	00f00513          	li	a0,15
f9000744:	e11ff0ef          	jal	ra,f9000554 <PhyDlySetRXTX>
	u32 Value;
	if(speed == 0x4) {
f9000748:	00400793          	li	a5,4
f900074c:	02f40263          	beq	s0,a5,f9000770 <PhyLoopInit+0x44>
		Phy_Wr(0x0, 0x4140);
		if(PRINTF_EN == 1) {
			bsp_print("Info : Set Phy 1000Mbps Loopback Mode.");
		}
	} else if(speed == 0x2) {
f9000750:	00200793          	li	a5,2
f9000754:	02f40e63          	beq	s0,a5,f9000790 <PhyLoopInit+0x64>
		Phy_Wr(0x0, 0x6100);
		if(PRINTF_EN == 1) {
			bsp_print("Info : Set Phy 100Mbps Loopback Mode.");
		}
	} else if(speed == 0x1) {
f9000758:	00100793          	li	a5,1
f900075c:	04f40a63          	beq	s0,a5,f90007b0 <PhyLoopInit+0x84>
		Phy_Wr(0x0, 0x4100);
		if(PRINTF_EN == 1) {
			bsp_print("Info : Set Phy 10Mbps Loopback Mode.");
		}
	}
}
f9000760:	00c12083          	lw	ra,12(sp)
f9000764:	00812403          	lw	s0,8(sp)
f9000768:	01010113          	addi	sp,sp,16
f900076c:	00008067          	ret
		Phy_Wr(0x0, 0x4140);
f9000770:	000045b7          	lui	a1,0x4
f9000774:	14058593          	addi	a1,a1,320 # 4140 <__stack_size+0x3140>
f9000778:	00000513          	li	a0,0
f900077c:	d01ff0ef          	jal	ra,f900047c <Phy_Wr>
			bsp_print("Info : Set Phy 1000Mbps Loopback Mode.");
f9000780:	f9001537          	lui	a0,0xf9001
f9000784:	b8850513          	addi	a0,a0,-1144 # f9000b88 <__freertos_irq_stack_top+0xffffef08>
f9000788:	aa5ff0ef          	jal	ra,f900022c <bsp_print>
f900078c:	fd5ff06f          	j	f9000760 <PhyLoopInit+0x34>
		Phy_Wr(0x0, 0x6100);
f9000790:	000065b7          	lui	a1,0x6
f9000794:	10058593          	addi	a1,a1,256 # 6100 <__stack_size+0x5100>
f9000798:	00000513          	li	a0,0
f900079c:	ce1ff0ef          	jal	ra,f900047c <Phy_Wr>
			bsp_print("Info : Set Phy 100Mbps Loopback Mode.");
f90007a0:	f9001537          	lui	a0,0xf9001
f90007a4:	bb050513          	addi	a0,a0,-1104 # f9000bb0 <__freertos_irq_stack_top+0xffffef30>
f90007a8:	a85ff0ef          	jal	ra,f900022c <bsp_print>
f90007ac:	fb5ff06f          	j	f9000760 <PhyLoopInit+0x34>
		Phy_Wr(0x0, 0x4100);
f90007b0:	000045b7          	lui	a1,0x4
f90007b4:	10058593          	addi	a1,a1,256 # 4100 <__stack_size+0x3100>
f90007b8:	00000513          	li	a0,0
f90007bc:	cc1ff0ef          	jal	ra,f900047c <Phy_Wr>
			bsp_print("Info : Set Phy 10Mbps Loopback Mode.");
f90007c0:	f9001537          	lui	a0,0xf9001
f90007c4:	bd850513          	addi	a0,a0,-1064 # f9000bd8 <__freertos_irq_stack_top+0xffffef58>
f90007c8:	a65ff0ef          	jal	ra,f900022c <bsp_print>
}
f90007cc:	f95ff06f          	j	f9000760 <PhyLoopInit+0x34>

f90007d0 <PatGen>:
#include "efx_tse_mac.h"
#include "efx_tse_phy.h"

////////////////////////////////////////////////////////////////////////////////
void PatGen()
{
f90007d0:	ff010113          	addi	sp,sp,-16
f90007d4:	00112623          	sw	ra,12(sp)
        *((volatile u32*) address) = data;
f90007d8:	f81007b7          	lui	a5,0xf8100
f90007dc:	00010737          	lui	a4,0x10
f90007e0:	fff70713          	addi	a4,a4,-1 # ffff <__stack_size+0xefff>
f90007e4:	20e7aa23          	sw	a4,532(a5) # f8100214 <__freertos_irq_stack_top+0xff0fe594>
f90007e8:	fff00713          	li	a4,-1
f90007ec:	20e7a823          	sw	a4,528(a5)
f90007f0:	0000f737          	lui	a4,0xf
f90007f4:	ae870713          	addi	a4,a4,-1304 # eae8 <__stack_size+0xdae8>
f90007f8:	20e7ae23          	sw	a4,540(a5)
f90007fc:	5e006737          	lui	a4,0x5e006
f9000800:	0c870713          	addi	a4,a4,200 # 5e0060c8 <__stack_size+0x5e0050c8>
f9000804:	20e7ac23          	sw	a4,536(a5)
f9000808:	c0a80737          	lui	a4,0xc0a80
f900080c:	16470693          	addi	a3,a4,356 # c0a80164 <__freertos_irq_stack_top+0xc7a7e4e4>
f9000810:	22d7a223          	sw	a3,548(a5)
f9000814:	16570713          	addi	a4,a4,357
f9000818:	22e7a423          	sw	a4,552(a5)
f900081c:	27150737          	lui	a4,0x27150
f9000820:	52170713          	addi	a4,a4,1313 # 27150521 <__stack_size+0x2714f521>
f9000824:	22e7a623          	sw	a4,556(a5)
f9000828:	00640737          	lui	a4,0x640
f900082c:	20e7a623          	sw	a4,524(a5)
f9000830:	06400713          	li	a4,100
f9000834:	22e7a023          	sw	a4,544(a5)
f9000838:	22e7a823          	sw	a4,560(a5)
f900083c:	2007a423          	sw	zero,520(a5)
f9000840:	2007a223          	sw	zero,516(a5)
f9000844:	00100713          	li	a4,1
f9000848:	20e7a423          	sw	a4,520(a5)
f900084c:	2007a423          	sw	zero,520(a5)
		write_u32(0x2, (TSEMAC_CSR+0x208));
        //ex_reg mac_pat_gen_en & udp_pat_gen_en
		write_u32(0x0, (TSEMAC_CSR+0x208));
	}
	if(PRINTF_EN == 1) {
        bsp_print("Info : Set Pattern Generator.");
f9000850:	f9001537          	lui	a0,0xf9001
f9000854:	c0050513          	addi	a0,a0,-1024 # f9000c00 <__freertos_irq_stack_top+0xffffef80>
f9000858:	9d5ff0ef          	jal	ra,f900022c <bsp_print>
	}
}
f900085c:	00c12083          	lw	ra,12(sp)
f9000860:	01010113          	addi	sp,sp,16
f9000864:	00008067          	ret

f9000868 <StartRunning>:

void StartRunning()
{
f9000868:	ff010113          	addi	sp,sp,-16
f900086c:	00112623          	sw	ra,12(sp)
f9000870:	00812423          	sw	s0,8(sp)
f9000874:	f8100437          	lui	s0,0xf8100
f9000878:	00100793          	li	a5,1
f900087c:	20f42023          	sw	a5,512(s0) # f8100200 <__freertos_irq_stack_top+0xff0fe580>
    //mac_sw_rst
	write_u32(0x1, (TSEMAC_CSR+0x200));
	if(PRINTF_EN == 1) {
	    bsp_print("Info : Assert mac reset ");
f9000880:	f9001537          	lui	a0,0xf9001
f9000884:	c2050513          	addi	a0,a0,-992 # f9000c20 <__freertos_irq_stack_top+0xffffefa0>
f9000888:	9a5ff0ef          	jal	ra,f900022c <bsp_print>
	}
	bsp_uDelay(1);
f900088c:	f8b00637          	lui	a2,0xf8b00
f9000890:	02faf5b7          	lui	a1,0x2faf
f9000894:	08058593          	addi	a1,a1,128 # 2faf080 <__stack_size+0x2fae080>
f9000898:	00100513          	li	a0,1
f900089c:	8edff0ef          	jal	ra,f9000188 <clint_uDelay>
f90008a0:	20042023          	sw	zero,512(s0)
    //mac_sw_rst
	write_u32(0x0, (TSEMAC_CSR+0x200));
	if(PRINTF_EN == 1) {
	    bsp_print("Info : Deassert mac reset ");
f90008a4:	f9001537          	lui	a0,0xf9001
f90008a8:	c3c50513          	addi	a0,a0,-964 # f9000c3c <__freertos_irq_stack_top+0xffffefbc>
f90008ac:	981ff0ef          	jal	ra,f900022c <bsp_print>
f90008b0:	20042223          	sw	zero,516(s0)
    }

	if(TEST_MODE == 0) {
        //ex_reg pat_mux_select & axi4_st_mux_select
		write_u32(0x0, (TSEMAC_CSR+0x204));
		MacCntClean();
f90008b4:	a59ff0ef          	jal	ra,f900030c <MacCntClean>
		PatGen();
f90008b8:	f19ff0ef          	jal	ra,f90007d0 <PatGen>
		MacAddrSet(1, 1);//originally is (0, 1)
		MacCntClean();
	}

	while(1){
		bsp_uDelay(3000000);
f90008bc:	f8b00637          	lui	a2,0xf8b00
f90008c0:	02faf5b7          	lui	a1,0x2faf
f90008c4:	08058593          	addi	a1,a1,128 # 2faf080 <__stack_size+0x2fae080>
f90008c8:	002dc537          	lui	a0,0x2dc
f90008cc:	6c050513          	addi	a0,a0,1728 # 2dc6c0 <__stack_size+0x2db6c0>
f90008d0:	8b9ff0ef          	jal	ra,f9000188 <clint_uDelay>
		CntMonitor();
f90008d4:	a9dff0ef          	jal	ra,f9000370 <CntMonitor>
f90008d8:	fe5ff06f          	j	f90008bc <StartRunning+0x54>

f90008dc <main>:
	}
}

////////////////////////////////////////////////////////////////////////////////
void main() {
f90008dc:	ff010113          	addi	sp,sp,-16
f90008e0:	00112623          	sw	ra,12(sp)
f90008e4:	00812423          	sw	s0,8(sp)
    u32 prompt=0;
    u32 speed;

    bsp_init();
    bsp_print("tse demo !");
f90008e8:	80018513          	addi	a0,gp,-2048 # f9000c58 <__init_array_end+0x34c>
f90008ec:	941ff0ef          	jal	ra,f900022c <bsp_print>
    speed = PhyNormalInit();
f90008f0:	d55ff0ef          	jal	ra,f9000644 <PhyNormalInit>
f90008f4:	00050413          	mv	s0,a0
	if (TEST_MODE == 0) {
		PhyLoopInit(4);// 4=1000, 2=100, 1=10Mbps
f90008f8:	00400513          	li	a0,4
f90008fc:	e31ff0ef          	jal	ra,f900072c <PhyLoopInit>
	}
	MacNormalInit(speed);
f9000900:	00040513          	mv	a0,s0
f9000904:	b59ff0ef          	jal	ra,f900045c <MacNormalInit>
	StartRunning();
f9000908:	f61ff0ef          	jal	ra,f9000868 <StartRunning>
